; ModuleID = '45/1578.c'
source_filename = "45/1578.c"
target datalayout = "e-m:e-p270:32:32-p271:32:32-p272:64:64-i64:64-f80:128-n8:16:32:64-S128"
target triple = "x86_64-pc-linux-gnu"

@.str = private unnamed_addr constant [5 x i8] c"%s%s\00", align 1
@.str.1 = private unnamed_addr constant [3 x i8] c"%d\00", align 1

; Function Attrs: noinline nounwind uwtable
define dso_local i32 @main(i32 %0, i8** %1) #0 {
  %3 = alloca i32, align 4
  %4 = alloca i32, align 4
  %5 = alloca i8**, align 8
  %6 = alloca [51 x i8], align 16
  %7 = alloca [51 x i8], align 16
  %8 = alloca i32, align 4
  %9 = alloca i32, align 4
  %10 = alloca i32, align 4
  store i32 0, i32* %3, align 4
  store i32 %0, i32* %4, align 4
  store i8** %1, i8*** %5, align 8
  %11 = getelementptr inbounds [51 x i8], [51 x i8]* %6, i64 0, i64 0
  %12 = getelementptr inbounds [51 x i8], [51 x i8]* %7, i64 0, i64 0
  %13 = call i32 (i8*, ...) @__isoc99_scanf(i8* getelementptr inbounds ([5 x i8], [5 x i8]* @.str, i64 0, i64 0), i8* %11, i8* %12)
  store i32 0, i32* %8, align 4
  br label %14

14:                                               ; preds = %69, %2
  %15 = load i32, i32* %8, align 4
  %16 = sext i32 %15 to i64
  %17 = getelementptr inbounds [51 x i8], [51 x i8]* %7, i64 0, i64 0
  %18 = call i64 @strlen(i8* %17) #3
  %19 = sub i64 %18, 1
  %20 = icmp ule i64 %16, %19
  br i1 %20, label %21, label %72

21:                                               ; preds = %14
  %22 = getelementptr inbounds [51 x i8], [51 x i8]* %6, i64 0, i64 0
  %23 = load i8, i8* %22, align 16
  %24 = sext i8 %23 to i32
  %25 = load i32, i32* %8, align 4
  %26 = sext i32 %25 to i64
  %27 = getelementptr inbounds [51 x i8], [51 x i8]* %7, i64 0, i64 %26
  %28 = load i8, i8* %27, align 1
  %29 = sext i8 %28 to i32
  %30 = icmp eq i32 %24, %29
  br i1 %30, label %31, label %59

31:                                               ; preds = %21
  store i32 0, i32* %9, align 4
  br label %32

32:                                               ; preds = %55, %31
  %33 = load i32, i32* %9, align 4
  %34 = sext i32 %33 to i64
  %35 = getelementptr inbounds [51 x i8], [51 x i8]* %6, i64 0, i64 0
  %36 = call i64 @strlen(i8* %35) #3
  %37 = sub i64 %36, 1
  %38 = icmp ule i64 %34, %37
  br i1 %38, label %39, label %58

39:                                               ; preds = %32
  %40 = load i32, i32* %9, align 4
  %41 = sext i32 %40 to i64
  %42 = getelementptr inbounds [51 x i8], [51 x i8]* %6, i64 0, i64 %41
  %43 = load i8, i8* %42, align 1
  %44 = sext i8 %43 to i32
  %45 = load i32, i32* %8, align 4
  %46 = load i32, i32* %9, align 4
  %47 = add nsw i32 %45, %46
  %48 = sext i32 %47 to i64
  %49 = getelementptr inbounds [51 x i8], [51 x i8]* %7, i64 0, i64 %48
  %50 = load i8, i8* %49, align 1
  %51 = sext i8 %50 to i32
  %52 = icmp ne i32 %44, %51
  br i1 %52, label %53, label %54

53:                                               ; preds = %39
  br label %58

54:                                               ; preds = %39
  br label %55

55:                                               ; preds = %54
  %56 = load i32, i32* %9, align 4
  %57 = add nsw i32 %56, 1
  store i32 %57, i32* %9, align 4
  br label %32

58:                                               ; preds = %53, %32
  br label %59

59:                                               ; preds = %58, %21
  %60 = load i32, i32* %9, align 4
  %61 = sext i32 %60 to i64
  %62 = getelementptr inbounds [51 x i8], [51 x i8]* %6, i64 0, i64 0
  %63 = call i64 @strlen(i8* %62) #3
  %64 = icmp eq i64 %61, %63
  br i1 %64, label %65, label %68

65:                                               ; preds = %59
  %66 = load i32, i32* %8, align 4
  %67 = call i32 (i8*, ...) @printf(i8* getelementptr inbounds ([3 x i8], [3 x i8]* @.str.1, i64 0, i64 0), i32 %66)
  br label %72

68:                                               ; preds = %59
  br label %69

69:                                               ; preds = %68
  %70 = load i32, i32* %8, align 4
  %71 = add nsw i32 %70, 1
  store i32 %71, i32* %8, align 4
  br label %14

72:                                               ; preds = %65, %14
  ret i32 0
}

declare dso_local i32 @__isoc99_scanf(i8*, ...) #1

; Function Attrs: nounwind readonly
declare dso_local i64 @strlen(i8*) #2

declare dso_local i32 @printf(i8*, ...) #1


!llvm.module.flags = !{!0}
!llvm.ident = !{!1}

!0 = !{i32 1, !"wchar_size", i32 4}
!1 = !{!"clang version 10.0.0-4ubuntu1 "}
